target datalayout = "e-m:e-p270:32:32-p271:32:32-p272:64:64-i64:64-i128:128-f80:128-n8:16:32:64-S128"
target triple = "x86_64-pc-linux-gnu"

@.str.10 = private unnamed_addr constant [12 x i8] c"predicate.c\00", align 1
@XactReadOnly = external global i8, align 1
@XactDeferrable = external global i8, align 1
@ParallelWorkerNumber = external global i32, align 4
@.str.11 = private unnamed_addr constant [66 x i8] c"a snapshot-importing transaction must not be READ ONLY DEFERRABLE\00", align 1
@__func__.SetSerializableTransactionSnapshot = private unnamed_addr constant [35 x i8] c"SetSerializableTransactionSnapshot\00", align 1

; Function Attrs: nounwind uwtable
define dso_local void @SetSerializableTransactionSnapshot(ptr noundef %0, ptr noundef %1, i32 noundef %2) #0 {
  %4 = alloca ptr, align 8
  %5 = alloca ptr, align 8
  %6 = alloca i32, align 4
  store ptr %0, ptr %4, align 8
  store ptr %1, ptr %5, align 8
  store i32 %2, ptr %6, align 4
  %7 = load i32, ptr @ParallelWorkerNumber, align 4
  %8 = icmp sge i32 %7, 0
  br i1 %8, label %9, label %10

9:                                                ; preds = %3
  br label %32

10:                                               ; preds = %3
  %11 = load i8, ptr @XactReadOnly, align 1, !range !4, !noundef !5
  %12 = trunc i8 %11 to i1
  br i1 %12, label %13, label %27

13:                                               ; preds = %10
  %14 = load i8, ptr @XactDeferrable, align 1, !range !4, !noundef !5
  %15 = trunc i8 %14 to i1
  br i1 %15, label %16, label %27

16:                                               ; preds = %13
  br label %17

17:                                               ; preds = %16
  br i1 true, label %18, label %20

18:                                               ; preds = %17
  %19 = call zeroext i1 @errstart_cold(i32 noundef 21, ptr noundef null) #11
  br i1 %19, label %22, label %25

20:                                               ; preds = %17
  %21 = call zeroext i1 @errstart(i32 noundef 21, ptr noundef null)
  br i1 %21, label %22, label %25

22:                                               ; preds = %20, %18
  %23 = call i32 @errcode(i32 noundef 1088)
  %24 = call i32 (ptr, ...) @errmsg(ptr noundef @.str.11)
  call void @errfinish(ptr noundef @.str.10, i32 noundef 1738, ptr noundef @__func__.SetSerializableTransactionSnapshot)
  br label %25

25:                                               ; preds = %22, %20, %18
  unreachable

26:                                               ; No predecessors!
  br label %27

27:                                               ; preds = %26, %13, %10
  %28 = load ptr, ptr %4, align 8
  %29 = load ptr, ptr %5, align 8
  %30 = load i32, ptr %6, align 4
  %31 = call ptr @GetSerializableTransactionSnapshotInt(ptr noundef %28, ptr noundef %29, i32 noundef %30)
  br label %32

32:                                               ; preds = %27, %9
  ret void
}