; Function Attrs: nounwind uwtable
define dso_local void @SetSerializableTransactionSnapshot(ptr noundef %0, ptr noundef %1, i32 noundef %2) local_unnamed_addr #0 {
  %4 = load i32, ptr @ParallelWorkerNumber, align 4
  %5 = icmp sgt i32 %4, -1
  br i1 %5, label %18, label %6

6:                                                ; preds = %3
  %7 = load i8, ptr @XactReadOnly, align 1, !range !4, !noundef !5
  %8 = trunc nuw i8 %7 to i1
  br i1 %8, label %9, label %16

9:                                                ; preds = %6
  %10 = load i8, ptr @XactDeferrable, align 1, !range !4, !noundef !5
  %11 = trunc nuw i8 %10 to i1
  br i1 %11, label %12, label %16

12:                                               ; preds = %9
  %13 = tail call zeroext i1 @errstart_cold(i32 noundef 21, ptr noundef null) #13
  tail call void @llvm.assume(i1 %13)
  %14 = tail call i32 @errcode(i32 noundef 1088) #12
  %15 = tail call i32 (ptr, ...) @errmsg(ptr noundef nonnull @.str.11) #12
  tail call void @errfinish(ptr noundef nonnull @.str.10, i32 noundef 1738, ptr noundef nonnull @__func__.SetSerializableTransactionSnapshot) #12
  unreachable

16:                                               ; preds = %9, %6
  %17 = tail call fastcc ptr @GetSerializableTransactionSnapshotInt(ptr noundef %0, ptr noundef %1, i32 noundef %2)
  br label %18

18:                                               ; preds = %3, %16
  ret void
}